; Function Attrs: mustprogress uwtable
define hidden noundef zeroext i1 @_ZNK3sat6solver11check_modelERK7svectorI5lbooljE(ptr noundef nonnull align 8 dereferenceable(4408) %this, ptr noundef nonnull align 8 dereferenceable(8) %m) local_unnamed_addr #3 align 2 {
entry:
  %call = tail call noundef zeroext i1 @_ZNK3sat6solver13check_clausesERK7svectorI5lbooljE(ptr noundef nonnull align 8 dereferenceable(4408) %this, ptr noundef nonnull align 8 dereferenceable(8) %m)
  br i1 %call, label %land.lhs.true, label %if.end12

land.lhs.true:                                    ; preds = %entry
  %m_mc = getelementptr inbounds i8, ptr %this, i64 2392
  %call2 = tail call noundef zeroext i1 @_ZNK3sat15model_converter11check_modelERK7svectorI5lbooljE(ptr noundef nonnull align 8 dereferenceable(40) %m_mc, ptr noundef nonnull align 8 dereferenceable(8) %m)
  br i1 %call2, label %if.end12, label %if.then

if.then:                                          ; preds = %land.lhs.true
  %call3 = tail call noundef i32 @_Z19get_verbosity_levelv()
  %call5 = tail call noundef zeroext i1 @_Z11is_threadedv()
  br i1 %call5, label %if.then6, label %if.else

if.then6:                                         ; preds = %if.then
  tail call void @_Z12verbose_lockv()
  %call7 = tail call noundef nonnull align 8 dereferenceable(8) ptr @_Z14verbose_streamv()
  %call8 = tail call noundef nonnull align 8 dereferenceable(8) ptr @_ZStlsISt11char_traitsIcEERSt13basic_ostreamIcT_ES5_PKc(ptr noundef nonnull align 8 dereferenceable(8) %call7, ptr noundef nonnull @.str.42)
  tail call void @_Z14verbose_unlockv()
  br label %if.end12

if.else:                                          ; preds = %if.then
  %call9 = tail call noundef nonnull align 8 dereferenceable(8) ptr @_Z14verbose_streamv()
  %call10 = tail call noundef nonnull align 8 dereferenceable(8) ptr @_ZStlsISt11char_traitsIcEERSt13basic_ostreamIcT_ES5_PKc(ptr noundef nonnull align 8 dereferenceable(8) %call9, ptr noundef nonnull @.str.42)
  br label %if.end12

if.end12:                                         ; preds = %if.else, %if.then6, %land.lhs.true, %entry
  %ok.0.shrunk = phi i1 [ true, %land.lhs.true ], [ false, %if.then6 ], [ false, %if.else ], [ false, %entry ]
  ret i1 %ok.0.shrunk
}